target datalayout = "e-m:e-p270:32:32-p271:32:32-p272:64:64-i64:64-i128:128-f80:128-n8:16:32:64-S128"
target triple = "x86_64-pc-linux-gnu"

%"class.cv::Size_" = type { i32, i32 }
%"class.cv::Complex" = type { float, float }
%"class.cv::Complex.6" = type { double, double }

; Function Attrs: inlinehint mustprogress nounwind uwtable
define linkonce_odr hidden void @_ZN2cv7ComplexIfEC2Eff(ptr noundef nonnull align 4 dereferenceable(8) %0, float noundef %1, float noundef %2) unnamed_addr #7 comdat align 2 {
  %4 = alloca ptr, align 8
  %5 = alloca float, align 4
  %6 = alloca float, align 4
  store ptr %0, ptr %4, align 8, !tbaa !499
  store float %1, ptr %5, align 4, !tbaa !10
  store float %2, ptr %6, align 4, !tbaa !10
  %7 = load ptr, ptr %4, align 8
  %8 = getelementptr inbounds nuw %"class.cv::Complex", ptr %7, i32 0, i32 0
  %9 = load float, ptr %5, align 4, !tbaa !10
  store float %9, ptr %8, align 4, !tbaa !618
  %10 = getelementptr inbounds nuw %"class.cv::Complex", ptr %7, i32 0, i32 1
  %11 = load float, ptr %6, align 4, !tbaa !10
  store float %11, ptr %10, align 4, !tbaa !620
  ret void
}

; Function Attrs: inlinehint mustprogress nounwind uwtable
define internal noundef float @_ZN2cvL13saturate_castIfEET_d(double noundef %0) #7 {
  %2 = alloca double, align 8
  store double %0, ptr %2, align 8, !tbaa !21
  %3 = load double, ptr %2, align 8, !tbaa !21
  %4 = fptrunc double %3 to float
  ret float %4
}

; Function Attrs: inlinehint mustprogress nounwind uwtable
define internal noundef double @_ZN2cvL13saturate_castIdEET_f(float noundef %0) #7 {
  %2 = alloca float, align 4
  store float %0, ptr %2, align 4, !tbaa !10
  %3 = load float, ptr %2, align 4, !tbaa !10
  %4 = fpext float %3 to double
  ret double %4
}

; Function Attrs: inlinehint mustprogress nounwind uwtable
define linkonce_odr hidden void @_ZN2cv7ComplexIdEC2Edd(ptr noundef nonnull align 8 dereferenceable(16) %0, double noundef %1, double noundef %2) unnamed_addr #7 comdat align 2 {
  %4 = alloca ptr, align 8
  %5 = alloca double, align 8
  %6 = alloca double, align 8
  store ptr %0, ptr %4, align 8, !tbaa !501
  store double %1, ptr %5, align 8, !tbaa !21
  store double %2, ptr %6, align 8, !tbaa !21
  %7 = load ptr, ptr %4, align 8
  %8 = getelementptr inbounds nuw %"class.cv::Complex.6", ptr %7, i32 0, i32 0
  %9 = load double, ptr %5, align 8, !tbaa !21
  store double %9, ptr %8, align 8, !tbaa !615
  %10 = getelementptr inbounds nuw %"class.cv::Complex.6", ptr %7, i32 0, i32 1
  %11 = load double, ptr %6, align 8, !tbaa !21
  store double %11, ptr %10, align 8, !tbaa !617
  ret void
}

; Function Attrs: inlinehint mustprogress uwtable
define linkonce_odr hidden <2 x float> @_ZNK2cv7ComplexIdEcvNS0_IT_EEIfEEv(ptr noundef nonnull align 8 dereferenceable(16) %0) #21 comdat align 2 {
  %2 = alloca %"class.cv::Complex", align 4
  %3 = alloca ptr, align 8
  store ptr %0, ptr %3, align 8, !tbaa !501
  %4 = load ptr, ptr %3, align 8
  %5 = getelementptr inbounds nuw %"class.cv::Complex.6", ptr %4, i32 0, i32 0
  %6 = load double, ptr %5, align 8, !tbaa !615
  %7 = call noundef float @_ZN2cvL13saturate_castIfEET_d(double noundef %6)
  %8 = getelementptr inbounds nuw %"class.cv::Complex.6", ptr %4, i32 0, i32 1
  %9 = load double, ptr %8, align 8, !tbaa !617
  %10 = call noundef float @_ZN2cvL13saturate_castIfEET_d(double noundef %9)
  call void @_ZN2cv7ComplexIfEC2Eff(ptr noundef nonnull align 4 dereferenceable(8) %2, float noundef %7, float noundef %10)
  %11 = load <2 x float>, ptr %2, align 4
  ret <2 x float> %11
}

; Function Attrs: inlinehint mustprogress uwtable
define internal { double, double } @_ZN2cvplIdEENS_7ComplexIT_EERKS3_S5_(ptr noundef nonnull align 8 dereferenceable(16) %0, ptr noundef nonnull align 8 dereferenceable(16) %1) #6 {
  %3 = alloca %"class.cv::Complex.6", align 8
  %4 = alloca ptr, align 8
  %5 = alloca ptr, align 8
  store ptr %0, ptr %4, align 8, !tbaa !501
  store ptr %1, ptr %5, align 8, !tbaa !501
  %6 = load ptr, ptr %4, align 8, !tbaa !501
  %7 = getelementptr inbounds nuw %"class.cv::Complex.6", ptr %6, i32 0, i32 0
  %8 = load double, ptr %7, align 8, !tbaa !615
  %9 = load ptr, ptr %5, align 8, !tbaa !501
  %10 = getelementptr inbounds nuw %"class.cv::Complex.6", ptr %9, i32 0, i32 0
  %11 = load double, ptr %10, align 8, !tbaa !615
  %12 = fadd double %8, %11
  %13 = load ptr, ptr %4, align 8, !tbaa !501
  %14 = getelementptr inbounds nuw %"class.cv::Complex.6", ptr %13, i32 0, i32 1
  %15 = load double, ptr %14, align 8, !tbaa !617
  %16 = load ptr, ptr %5, align 8, !tbaa !501
  %17 = getelementptr inbounds nuw %"class.cv::Complex.6", ptr %16, i32 0, i32 1
  %18 = load double, ptr %17, align 8, !tbaa !617
  %19 = fadd double %15, %18
  call void @_ZN2cv7ComplexIdEC2Edd(ptr noundef nonnull align 8 dereferenceable(16) %3, double noundef %12, double noundef %19)
  %20 = load { double, double }, ptr %3, align 8
  ret { double, double } %20
}

; Function Attrs: inlinehint mustprogress uwtable
define internal { double, double } @_ZN2cvmlIdEENS_7ComplexIT_EERKS3_S2_(ptr noundef nonnull align 8 dereferenceable(16) %0, double noundef %1) #6 {
  %3 = alloca %"class.cv::Complex.6", align 8
  %4 = alloca ptr, align 8
  %5 = alloca double, align 8
  store ptr %0, ptr %4, align 8, !tbaa !501
  store double %1, ptr %5, align 8, !tbaa !21
  %6 = load ptr, ptr %4, align 8, !tbaa !501
  %7 = getelementptr inbounds nuw %"class.cv::Complex.6", ptr %6, i32 0, i32 0
  %8 = load double, ptr %7, align 8, !tbaa !615
  %9 = load double, ptr %5, align 8, !tbaa !21
  %10 = fmul double %8, %9
  %11 = load ptr, ptr %4, align 8, !tbaa !501
  %12 = getelementptr inbounds nuw %"class.cv::Complex.6", ptr %11, i32 0, i32 1
  %13 = load double, ptr %12, align 8, !tbaa !617
  %14 = load double, ptr %5, align 8, !tbaa !21
  %15 = fmul double %13, %14
  call void @_ZN2cv7ComplexIdEC2Edd(ptr noundef nonnull align 8 dereferenceable(16) %3, double noundef %10, double noundef %15)
  %16 = load { double, double }, ptr %3, align 8
  ret { double, double } %16
}

; Function Attrs: inlinehint mustprogress uwtable
define linkonce_odr hidden { double, double } @_ZNK2cv7ComplexIfEcvNS0_IT_EEIdEEv(ptr noundef nonnull align 4 dereferenceable(8) %0) #6 comdat align 2 {
  %2 = alloca %"class.cv::Complex.6", align 8
  %3 = alloca ptr, align 8
  store ptr %0, ptr %3, align 8, !tbaa !499
  %4 = load ptr, ptr %3, align 8
  %5 = getelementptr inbounds nuw %"class.cv::Complex", ptr %4, i32 0, i32 0
  %6 = load float, ptr %5, align 4, !tbaa !618
  %7 = call noundef double @_ZN2cvL13saturate_castIdEET_f(float noundef %6)
  %8 = getelementptr inbounds nuw %"class.cv::Complex", ptr %4, i32 0, i32 1
  %9 = load float, ptr %8, align 4, !tbaa !620
  %10 = call noundef double @_ZN2cvL13saturate_castIdEET_f(float noundef %9)
  call void @_ZN2cv7ComplexIdEC2Edd(ptr noundef nonnull align 8 dereferenceable(16) %2, double noundef %7, double noundef %10)
  %11 = load { double, double }, ptr %2, align 8
  ret { double, double } %11
}

; Function Attrs: inlinehint mustprogress uwtable
define internal { double, double } @_ZN2cvmlIdEENS_7ComplexIT_EES2_RKS3_(double noundef %0, ptr noundef nonnull align 8 dereferenceable(16) %1) #6 {
  %3 = alloca %"class.cv::Complex.6", align 8
  %4 = alloca double, align 8
  %5 = alloca ptr, align 8
  store double %0, ptr %4, align 8, !tbaa !21
  store ptr %1, ptr %5, align 8, !tbaa !501
  %6 = load ptr, ptr %5, align 8, !tbaa !501
  %7 = getelementptr inbounds nuw %"class.cv::Complex.6", ptr %6, i32 0, i32 0
  %8 = load double, ptr %7, align 8, !tbaa !615
  %9 = load double, ptr %4, align 8, !tbaa !21
  %10 = fmul double %8, %9
  %11 = load ptr, ptr %5, align 8, !tbaa !501
  %12 = getelementptr inbounds nuw %"class.cv::Complex.6", ptr %11, i32 0, i32 1
  %13 = load double, ptr %12, align 8, !tbaa !617
  %14 = load double, ptr %4, align 8, !tbaa !21
  %15 = fmul double %13, %14
  call void @_ZN2cv7ComplexIdEC2Edd(ptr noundef nonnull align 8 dereferenceable(16) %3, double noundef %10, double noundef %15)
  %16 = load { double, double }, ptr %3, align 8
  ret { double, double } %16
}

; Function Attrs: mustprogress uwtable
define internal void @_ZN2cv12cpu_baselineL9GEMMStoreINS_7ComplexIfEENS2_IdEEEEvPKT_mPKT0_mPS5_mNS_5Size_IiEEddi(ptr noundef %0, i64 noundef %1, ptr noundef %2, i64 noundef %3, ptr noundef %4, i64 noundef %5, i64 %6, double noundef %7, double noundef %8, i32 noundef %9) #20 {
  %11 = alloca %"class.cv::Size_", align 4
  %12 = alloca ptr, align 8
  %13 = alloca i64, align 8
  %14 = alloca ptr, align 8
  %15 = alloca i64, align 8
  %16 = alloca ptr, align 8
  %17 = alloca i64, align 8
  %18 = alloca double, align 8
  %19 = alloca double, align 8
  %20 = alloca i32, align 4
  %21 = alloca ptr, align 8
  %22 = alloca i32, align 4
  %23 = alloca i64, align 8
  %24 = alloca i64, align 8
  %25 = alloca %"class.cv::Complex.6", align 8
  %26 = alloca %"class.cv::Complex", align 4
  %27 = alloca %"class.cv::Complex.6", align 8
  %28 = alloca %"class.cv::Complex.6", align 8
  %29 = alloca %"class.cv::Complex.6", align 8
  %30 = alloca %"class.cv::Complex", align 4
  %31 = alloca %"class.cv::Complex.6", align 8
  store i64 %6, ptr %11, align 4
  store ptr %0, ptr %12, align 8, !tbaa !499
  store i64 %1, ptr %13, align 8, !tbaa !8
  store ptr %2, ptr %14, align 8, !tbaa !501
  store i64 %3, ptr %15, align 8, !tbaa !8
  store ptr %4, ptr %16, align 8, !tbaa !499
  store i64 %5, ptr %17, align 8, !tbaa !8
  store double %7, ptr %18, align 8, !tbaa !21
  store double %8, ptr %19, align 8, !tbaa !21
  store i32 %9, ptr %20, align 4, !tbaa !12
  call void @llvm.lifetime.start.p0(i64 8, ptr %21) #3
  %32 = load ptr, ptr %12, align 8, !tbaa !499
  store ptr %32, ptr %21, align 8, !tbaa !499
  call void @llvm.lifetime.start.p0(i64 4, ptr %22) #3
  call void @llvm.lifetime.start.p0(i64 8, ptr %23) #3
  call void @llvm.lifetime.start.p0(i64 8, ptr %24) #3
  %33 = load i64, ptr %13, align 8, !tbaa !8
  %34 = udiv i64 %33, 8
  store i64 %34, ptr %13, align 8, !tbaa !8
  %35 = load i64, ptr %15, align 8, !tbaa !8
  %36 = udiv i64 %35, 16
  store i64 %36, ptr %15, align 8, !tbaa !8
  %37 = load i64, ptr %17, align 8, !tbaa !8
  %38 = udiv i64 %37, 8
  store i64 %38, ptr %17, align 8, !tbaa !8
  %39 = load ptr, ptr %12, align 8, !tbaa !499
  %40 = icmp ne ptr %39, null
  br i1 %40, label %42, label %41

41:                                               ; preds = %10
  store i64 0, ptr %24, align 8, !tbaa !8
  store i64 0, ptr %23, align 8, !tbaa !8
  br label %51

42:                                               ; preds = %10
  %43 = load i32, ptr %20, align 4, !tbaa !12
  %44 = and i32 %43, 4
  %45 = icmp ne i32 %44, 0
  br i1 %45, label %48, label %46

46:                                               ; preds = %42
  %47 = load i64, ptr %13, align 8, !tbaa !8
  store i64 %47, ptr %23, align 8, !tbaa !8
  store i64 1, ptr %24, align 8, !tbaa !8
  br label %50

48:                                               ; preds = %42
  store i64 1, ptr %23, align 8, !tbaa !8
  %49 = load i64, ptr %13, align 8, !tbaa !8
  store i64 %49, ptr %24, align 8, !tbaa !8
  br label %50

50:                                               ; preds = %48, %46
  br label %51

51:                                               ; preds = %50, %41
  br label %52

52:                                               ; preds = %135, %51
  %53 = getelementptr inbounds nuw %"class.cv::Size_", ptr %11, i32 0, i32 1
  %54 = load i32, ptr %53, align 4, !tbaa !41
  %55 = add nsw i32 %54, -1
  store i32 %55, ptr %53, align 4, !tbaa !41
  %56 = icmp ne i32 %54, 0
  br i1 %56, label %57, label %145

57:                                               ; preds = %52
  %58 = load ptr, ptr %21, align 8, !tbaa !499
  %59 = icmp ne ptr %58, null
  br i1 %59, label %60, label %108

60:                                               ; preds = %57
  %61 = load ptr, ptr %21, align 8, !tbaa !499
  store ptr %61, ptr %12, align 8, !tbaa !499
  store i32 0, ptr %22, align 4, !tbaa !12
  br label %62

62:                                               ; preds = %101, %60
  %63 = load i32, ptr %22, align 4, !tbaa !12
  %64 = getelementptr inbounds nuw %"class.cv::Size_", ptr %11, i32 0, i32 0
  %65 = load i32, ptr %64, align 4, !tbaa !39
  %66 = icmp slt i32 %63, %65
  br i1 %66, label %67, label %107

67:                                               ; preds = %62
  call void @llvm.lifetime.start.p0(i64 16, ptr %25) #3
  %68 = load double, ptr %18, align 8, !tbaa !21
  %69 = load ptr, ptr %14, align 8, !tbaa !501
  %70 = load i32, ptr %22, align 4, !tbaa !12
  %71 = sext i32 %70 to i64
  %72 = getelementptr inbounds %"class.cv::Complex.6", ptr %69, i64 %71
  %73 = call { double, double } @_ZN2cvmlIdEENS_7ComplexIT_EES2_RKS3_(double noundef %68, ptr noundef nonnull align 8 dereferenceable(16) %72)
  %74 = getelementptr inbounds nuw { double, double }, ptr %25, i32 0, i32 0
  %75 = extractvalue { double, double } %73, 0
  store double %75, ptr %74, align 8
  %76 = getelementptr inbounds nuw { double, double }, ptr %25, i32 0, i32 1
  %77 = extractvalue { double, double } %73, 1
  store double %77, ptr %76, align 8
  call void @llvm.lifetime.start.p0(i64 8, ptr %26) #3
  call void @llvm.lifetime.start.p0(i64 16, ptr %27) #3
  call void @llvm.lifetime.start.p0(i64 16, ptr %28) #3
  call void @llvm.lifetime.start.p0(i64 16, ptr %29) #3
  %78 = load ptr, ptr %12, align 8, !tbaa !499
  %79 = getelementptr inbounds %"class.cv::Complex", ptr %78, i64 0
  %80 = call { double, double } @_ZNK2cv7ComplexIfEcvNS0_IT_EEIdEEv(ptr noundef nonnull align 4 dereferenceable(8) %79)
  %81 = getelementptr inbounds nuw { double, double }, ptr %29, i32 0, i32 0
  %82 = extractvalue { double, double } %80, 0
  store double %82, ptr %81, align 8
  %83 = getelementptr inbounds nuw { double, double }, ptr %29, i32 0, i32 1
  %84 = extractvalue { double, double } %80, 1
  store double %84, ptr %83, align 8
  %85 = load double, ptr %19, align 8, !tbaa !21
  %86 = call { double, double } @_ZN2cvmlIdEENS_7ComplexIT_EERKS3_S2_(ptr noundef nonnull align 8 dereferenceable(16) %29, double noundef %85)
  %87 = getelementptr inbounds nuw { double, double }, ptr %28, i32 0, i32 0
  %88 = extractvalue { double, double } %86, 0
  store double %88, ptr %87, align 8
  %89 = getelementptr inbounds nuw { double, double }, ptr %28, i32 0, i32 1
  %90 = extractvalue { double, double } %86, 1
  store double %90, ptr %89, align 8
  %91 = call { double, double } @_ZN2cvplIdEENS_7ComplexIT_EERKS3_S5_(ptr noundef nonnull align 8 dereferenceable(16) %25, ptr noundef nonnull align 8 dereferenceable(16) %28)
  %92 = getelementptr inbounds nuw { double, double }, ptr %27, i32 0, i32 0
  %93 = extractvalue { double, double } %91, 0
  store double %93, ptr %92, align 8
  %94 = getelementptr inbounds nuw { double, double }, ptr %27, i32 0, i32 1
  %95 = extractvalue { double, double } %91, 1
  store double %95, ptr %94, align 8
  %96 = call <2 x float> @_ZNK2cv7ComplexIdEcvNS0_IT_EEIfEEv(ptr noundef nonnull align 8 dereferenceable(16) %27)
  store <2 x float> %96, ptr %26, align 4
  %97 = load ptr, ptr %16, align 8, !tbaa !499
  %98 = load i32, ptr %22, align 4, !tbaa !12
  %99 = sext i32 %98 to i64
  %100 = getelementptr inbounds %"class.cv::Complex", ptr %97, i64 %99
  call void @llvm.memcpy.p0.p0.i64(ptr align 4 %100, ptr align 4 %26, i64 8, i1 false), !tbaa.struct !586
  call void @llvm.lifetime.end.p0(i64 16, ptr %29) #3
  call void @llvm.lifetime.end.p0(i64 16, ptr %28) #3
  call void @llvm.lifetime.end.p0(i64 16, ptr %27) #3
  call void @llvm.lifetime.end.p0(i64 8, ptr %26) #3
  call void @llvm.lifetime.end.p0(i64 16, ptr %25) #3
  br label %101

101:                                              ; preds = %67
  %102 = load i32, ptr %22, align 4, !tbaa !12
  %103 = add nsw i32 %102, 1
  store i32 %103, ptr %22, align 4, !tbaa !12
  %104 = load i64, ptr %24, align 8, !tbaa !8
  %105 = load ptr, ptr %12, align 8, !tbaa !499
  %106 = getelementptr inbounds nuw %"class.cv::Complex", ptr %105, i64 %104
  store ptr %106, ptr %12, align 8, !tbaa !499
  br label %62, !llvm.loop !637

107:                                              ; preds = %62
  br label %134

108:                                              ; preds = %57
  store i32 0, ptr %22, align 4, !tbaa !12
  br label %109

109:                                              ; preds = %130, %108
  %110 = load i32, ptr %22, align 4, !tbaa !12
  %111 = getelementptr inbounds nuw %"class.cv::Size_", ptr %11, i32 0, i32 0
  %112 = load i32, ptr %111, align 4, !tbaa !39
  %113 = icmp slt i32 %110, %112
  br i1 %113, label %114, label %133

114:                                              ; preds = %109
  call void @llvm.lifetime.start.p0(i64 8, ptr %30) #3
  call void @llvm.lifetime.start.p0(i64 16, ptr %31) #3
  %115 = load double, ptr %18, align 8, !tbaa !21
  %116 = load ptr, ptr %14, align 8, !tbaa !501
  %117 = load i32, ptr %22, align 4, !tbaa !12
  %118 = sext i32 %117 to i64
  %119 = getelementptr inbounds %"class.cv::Complex.6", ptr %116, i64 %118
  %120 = call { double, double } @_ZN2cvmlIdEENS_7ComplexIT_EES2_RKS3_(double noundef %115, ptr noundef nonnull align 8 dereferenceable(16) %119)
  %121 = getelementptr inbounds nuw { double, double }, ptr %31, i32 0, i32 0
  %122 = extractvalue { double, double } %120, 0
  store double %122, ptr %121, align 8
  %123 = getelementptr inbounds nuw { double, double }, ptr %31, i32 0, i32 1
  %124 = extractvalue { double, double } %120, 1
  store double %124, ptr %123, align 8
  %125 = call <2 x float> @_ZNK2cv7ComplexIdEcvNS0_IT_EEIfEEv(ptr noundef nonnull align 8 dereferenceable(16) %31)
  store <2 x float> %125, ptr %30, align 4
  %126 = load ptr, ptr %16, align 8, !tbaa !499
  %127 = load i32, ptr %22, align 4, !tbaa !12
  %128 = sext i32 %127 to i64
  %129 = getelementptr inbounds %"class.cv::Complex", ptr %126, i64 %128
  call void @llvm.memcpy.p0.p0.i64(ptr align 4 %129, ptr align 4 %30, i64 8, i1 false), !tbaa.struct !586
  call void @llvm.lifetime.end.p0(i64 16, ptr %31) #3
  call void @llvm.lifetime.end.p0(i64 8, ptr %30) #3
  br label %130

130:                                              ; preds = %114
  %131 = load i32, ptr %22, align 4, !tbaa !12
  %132 = add nsw i32 %131, 1
  store i32 %132, ptr %22, align 4, !tbaa !12
  br label %109, !llvm.loop !638

133:                                              ; preds = %109
  br label %134

134:                                              ; preds = %133, %107
  br label %135

135:                                              ; preds = %134
  %136 = load i64, ptr %23, align 8, !tbaa !8
  %137 = load ptr, ptr %21, align 8, !tbaa !499
  %138 = getelementptr inbounds nuw %"class.cv::Complex", ptr %137, i64 %136
  store ptr %138, ptr %21, align 8, !tbaa !499
  %139 = load i64, ptr %15, align 8, !tbaa !8
  %140 = load ptr, ptr %14, align 8, !tbaa !501
  %141 = getelementptr inbounds nuw %"class.cv::Complex.6", ptr %140, i64 %139
  store ptr %141, ptr %14, align 8, !tbaa !501
  %142 = load i64, ptr %17, align 8, !tbaa !8
  %143 = load ptr, ptr %16, align 8, !tbaa !499
  %144 = getelementptr inbounds nuw %"class.cv::Complex", ptr %143, i64 %142
  store ptr %144, ptr %16, align 8, !tbaa !499
  br label %52, !llvm.loop !639

145:                                              ; preds = %52
  call void @llvm.lifetime.end.p0(i64 8, ptr %24) #3
  call void @llvm.lifetime.end.p0(i64 8, ptr %23) #3
  call void @llvm.lifetime.end.p0(i64 4, ptr %22) #3
  call void @llvm.lifetime.end.p0(i64 8, ptr %21) #3
  ret void
}

; Function Attrs: mustprogress uwtable
define internal void @_ZN2cv12cpu_baselineL14GEMMStore_32fcEPKNS_7ComplexIfEEmPKNS1_IdEEmPS2_mNS_5Size_IiEEddi(ptr noundef %0, i64 noundef %1, ptr noundef %2, i64 noundef %3, ptr noundef %4, i64 noundef %5, i64 %6, double noundef %7, double noundef %8, i32 noundef %9) #4 {
  %11 = alloca %"class.cv::Size_", align 4
  %12 = alloca ptr, align 8
  %13 = alloca i64, align 8
  %14 = alloca ptr, align 8
  %15 = alloca i64, align 8
  %16 = alloca ptr, align 8
  %17 = alloca i64, align 8
  %18 = alloca double, align 8
  %19 = alloca double, align 8
  %20 = alloca i32, align 4
  %21 = alloca %"class.cv::Size_", align 4
  store i64 %6, ptr %11, align 4
  store ptr %0, ptr %12, align 8, !tbaa !499
  store i64 %1, ptr %13, align 8, !tbaa !8
  store ptr %2, ptr %14, align 8, !tbaa !501
  store i64 %3, ptr %15, align 8, !tbaa !8
  store ptr %4, ptr %16, align 8, !tbaa !499
  store i64 %5, ptr %17, align 8, !tbaa !8
  store double %7, ptr %18, align 8, !tbaa !21
  store double %8, ptr %19, align 8, !tbaa !21
  store i32 %9, ptr %20, align 4, !tbaa !12
  %22 = load ptr, ptr %12, align 8, !tbaa !499
  %23 = load i64, ptr %13, align 8, !tbaa !8
  %24 = load ptr, ptr %14, align 8, !tbaa !501
  %25 = load i64, ptr %15, align 8, !tbaa !8
  %26 = load ptr, ptr %16, align 8, !tbaa !499
  %27 = load i64, ptr %17, align 8, !tbaa !8
  call void @llvm.memcpy.p0.p0.i64(ptr align 4 %21, ptr align 4 %11, i64 8, i1 false), !tbaa.struct !292
  %28 = load double, ptr %18, align 8, !tbaa !21
  %29 = load double, ptr %19, align 8, !tbaa !21
  %30 = load i32, ptr %20, align 4, !tbaa !12
  %31 = load i64, ptr %21, align 4
  call void @_ZN2cv12cpu_baselineL9GEMMStoreINS_7ComplexIfEENS2_IdEEEEvPKT_mPKT0_mPS5_mNS_5Size_IiEEddi(ptr noundef %22, i64 noundef %23, ptr noundef %24, i64 noundef %25, ptr noundef %26, i64 noundef %27, i64 %31, double noundef %28, double noundef %29, i32 noundef %30)
  ret void
}