; Function Attrs: mustprogress nofree norecurse nosync nounwind memory(argmem: readwrite) uwtable
define internal void @_ZN2cv12cpu_baselineL14GEMMStore_32fcEPKNS_7ComplexIfEEmPKNS1_IdEEmPS2_mNS_5Size_IiEEddi(ptr noundef readonly %0, i64 noundef %1, ptr noundef readonly captures(none) %2, i64 noundef %3, ptr noundef writeonly captures(none) %4, i64 noundef %5, i64 %6, double noundef %7, double noundef %8, i32 noundef %9) unnamed_addr #22 {
  %.fr.i = freeze i64 %6
  %11 = lshr i64 %1, 3
  %12 = lshr i64 %3, 4
  %13 = lshr i64 %5, 3
  %.not.i = icmp eq ptr %0, null
  %14 = and i32 %9, 4
  %.not42.i = icmp eq i32 %14, 0
  %..i = select i1 %.not42.i, i64 %11, i64 1
  %.45.i = select i1 %.not42.i, i64 1, i64 %11
  %.037.i = select i1 %.not.i, i64 0, i64 %..i
  %.036.i = select i1 %.not.i, i64 0, i64 %.45.i
  %.not4379.i = icmp ugt i64 %.fr.i, 4294967295
  %.sroa.034.0.extract.trunc.i = trunc i64 %.fr.i to i32
  %15 = icmp sgt i32 %.sroa.034.0.extract.trunc.i, 0
  %or.cond.i = and i1 %.not4379.i, %15
  br i1 %or.cond.i, label %.lr.ph86.split.us.split.us.preheader.i, label %_ZN2cv12cpu_baselineL9GEMMStoreINS_7ComplexIfEENS2_IdEEEEvPKT_mPKT0_mPS5_mNS_5Size_IiEEddi.exit

.lr.ph86.split.us.split.us.preheader.i:           ; preds = %10
  %.sroa.3.0.extract.shift.i = lshr i64 %.fr.i, 32
  %.sroa.3.0.extract.trunc.i = trunc nuw i64 %.sroa.3.0.extract.shift.i to i32
  %wide.trip.count117.i = and i64 %.fr.i, 2147483647
  br label %.lr.ph86.split.us.split.us.i

.lr.ph86.split.us.split.us.i:                     ; preds = %..loopexit74_crit_edge.us.us.i, %.lr.ph86.split.us.split.us.preheader.i
  %.in.i = phi i32 [ %16, %..loopexit74_crit_edge.us.us.i ], [ %.sroa.3.0.extract.trunc.i, %.lr.ph86.split.us.split.us.preheader.i ]
  %.03984.us.us.i = phi ptr [ %34, %..loopexit74_crit_edge.us.us.i ], [ %0, %.lr.ph86.split.us.split.us.preheader.i ]
  %.04082.us.us.i = phi ptr [ %35, %..loopexit74_crit_edge.us.us.i ], [ %2, %.lr.ph86.split.us.split.us.preheader.i ]
  %.04180.us.us.i = phi ptr [ %36, %..loopexit74_crit_edge.us.us.i ], [ %4, %.lr.ph86.split.us.split.us.preheader.i ]
  %16 = add nsw i32 %.in.i, -1
  %.not44.us.us.i = icmp eq ptr %.03984.us.us.i, null
  br i1 %.not44.us.us.i, label %.preheader.us.us.i, label %.preheader73.us.us.i

.preheader73.us.us.i:                             ; preds = %.lr.ph86.split.us.split.us.i, %.preheader73.us.us.i
  %indvars.iv114.i = phi i64 [ %indvars.iv.next115.i, %.preheader73.us.us.i ], [ 0, %.lr.ph86.split.us.split.us.i ]
  %.076.us.us.i = phi ptr [ %33, %.preheader73.us.us.i ], [ %.03984.us.us.i, %.lr.ph86.split.us.split.us.i ]
  %17 = getelementptr inbounds nuw %"class.cv::Complex.6", ptr %.04082.us.us.i, i64 %indvars.iv114.i
  %.val.us.us.i = load double, ptr %17, align 8, !tbaa !649
  %18 = getelementptr i8, ptr %17, i64 8
  %.val46.us.us.i = load double, ptr %18, align 8, !tbaa !651
  %19 = fmul double %7, %.val.us.us.i
  %20 = fmul double %7, %.val46.us.us.i
  %21 = load float, ptr %.076.us.us.i, align 4, !tbaa !628
  %22 = fpext float %21 to double
  %23 = getelementptr inbounds nuw i8, ptr %.076.us.us.i, i64 4
  %24 = load float, ptr %23, align 4, !tbaa !630
  %25 = fpext float %24 to double
  %26 = fmul double %8, %22
  %27 = fmul double %8, %25
  %28 = fadd double %19, %26
  %29 = fadd double %20, %27
  %30 = fptrunc double %28 to float
  %31 = fptrunc double %29 to float
  %.sroa.0.0.vec.insert.i.us.us.i = insertelement <2 x float> poison, float %30, i64 0
  %.sroa.0.4.vec.insert.i.us.us.i = insertelement <2 x float> %.sroa.0.0.vec.insert.i.us.us.i, float %31, i64 1
  %32 = getelementptr inbounds nuw %"class.cv::Complex", ptr %.04180.us.us.i, i64 %indvars.iv114.i
  store <2 x float> %.sroa.0.4.vec.insert.i.us.us.i, ptr %32, align 4
  %indvars.iv.next115.i = add nuw nsw i64 %indvars.iv114.i, 1
  %33 = getelementptr inbounds nuw %"class.cv::Complex", ptr %.076.us.us.i, i64 %.036.i
  %exitcond118.not.i = icmp eq i64 %indvars.iv.next115.i, %wide.trip.count117.i
  br i1 %exitcond118.not.i, label %..loopexit74_crit_edge.us.us.i, label %.preheader73.us.us.i, !llvm.loop !668

..loopexit74_crit_edge.us.us.i:                   ; preds = %.preheader73.us.us.i, %.preheader.us.us.i
  %34 = getelementptr inbounds nuw %"class.cv::Complex", ptr %.03984.us.us.i, i64 %.037.i
  %35 = getelementptr inbounds nuw %"class.cv::Complex.6", ptr %.04082.us.us.i, i64 %12
  %36 = getelementptr inbounds nuw %"class.cv::Complex", ptr %.04180.us.us.i, i64 %13
  %.not43.us.us.i = icmp eq i32 %16, 0
  br i1 %.not43.us.us.i, label %_ZN2cv12cpu_baselineL9GEMMStoreINS_7ComplexIfEENS2_IdEEEEvPKT_mPKT0_mPS5_mNS_5Size_IiEEddi.exit, label %.lr.ph86.split.us.split.us.i, !llvm.loop !669

.preheader.us.us.i:                               ; preds = %.lr.ph86.split.us.split.us.i, %.preheader.us.us.i
  %indvars.iv119.i = phi i64 [ %indvars.iv.next120.i, %.preheader.us.us.i ], [ 0, %.lr.ph86.split.us.split.us.i ]
  %37 = getelementptr inbounds nuw %"class.cv::Complex.6", ptr %.04082.us.us.i, i64 %indvars.iv119.i
  %.val47.us.us.i = load double, ptr %37, align 8, !tbaa !649
  %38 = getelementptr i8, ptr %37, i64 8
  %.val48.us.us.i = load double, ptr %38, align 8, !tbaa !651
  %39 = fmul double %7, %.val47.us.us.i
  %40 = fmul double %7, %.val48.us.us.i
  %41 = fptrunc double %39 to float
  %42 = fptrunc double %40 to float
  %.sroa.0.0.vec.insert.i63.us.us.i = insertelement <2 x float> poison, float %41, i64 0
  %.sroa.0.4.vec.insert.i64.us.us.i = insertelement <2 x float> %.sroa.0.0.vec.insert.i63.us.us.i, float %42, i64 1
  %43 = getelementptr inbounds nuw %"class.cv::Complex", ptr %.04180.us.us.i, i64 %indvars.iv119.i
  store <2 x float> %.sroa.0.4.vec.insert.i64.us.us.i, ptr %43, align 4
  %indvars.iv.next120.i = add nuw nsw i64 %indvars.iv119.i, 1
  %exitcond123.not.i = icmp eq i64 %indvars.iv.next120.i, %wide.trip.count117.i
  br i1 %exitcond123.not.i, label %..loopexit74_crit_edge.us.us.i, label %.preheader.us.us.i, !llvm.loop !670

_ZN2cv12cpu_baselineL9GEMMStoreINS_7ComplexIfEENS2_IdEEEEvPKT_mPKT0_mPS5_mNS_5Size_IiEEddi.exit: ; preds = %..loopexit74_crit_edge.us.us.i, %10
  ret void
}